; Function Attrs: nounwind uwtable
define ptr @l_Std_Time_Internal_Bounded_LE_clip(ptr noundef %0, ptr noundef %1, ptr noundef %2, ptr readnone captures(none) %3) local_unnamed_addr #1 {
  %5 = ptrtoint ptr %0 to i64
  %6 = and i64 %5, 1
  %.not.i.i = icmp eq i64 %6, 0
  br i1 %.not.i.i, label %lean_int_dec_le.exit, label %7, !prof !10

7:                                                ; preds = %4
  %8 = ptrtoint ptr %2 to i64
  %9 = and i64 %8, 1
  %.not7.i.i = icmp eq i64 %9, 0
  br i1 %.not7.i.i, label %lean_int_dec_le.exit.thread38, label %lean_int_dec_le.exit.thread, !prof !10

lean_int_dec_le.exit:                             ; preds = %4
  %10 = tail call zeroext i1 @lean_int_big_le(ptr noundef %0, ptr noundef %2) #5
  br i1 %10, label %22, label %16

lean_int_dec_le.exit.thread38:                    ; preds = %7
  %11 = tail call zeroext i1 @lean_int_big_le(ptr noundef %0, ptr noundef %2) #5
  br i1 %11, label %22, label %lean_inc.exit13

lean_int_dec_le.exit.thread:                      ; preds = %7
  %12 = lshr i64 %5, 1
  %13 = trunc i64 %12 to i32
  %14 = lshr i64 %8, 1
  %15 = trunc i64 %14 to i32
  %.not = icmp sgt i32 %13, %15
  br i1 %.not, label %lean_inc.exit13, label %.thread39

16:                                               ; preds = %lean_int_dec_le.exit
  %.val.i = load i32, ptr %0, align 4, !tbaa !4
  %17 = icmp sgt i32 %.val.i, 0
  br i1 %17, label %18, label %20, !prof !9

18:                                               ; preds = %16
  %19 = add nuw i32 %.val.i, 1
  store i32 %19, ptr %0, align 4, !tbaa !4
  br label %lean_inc.exit13

20:                                               ; preds = %16
  %.not.i = icmp eq i32 %.val.i, 0
  br i1 %.not.i, label %lean_inc.exit13, label %21

21:                                               ; preds = %20
  tail call void @lean_inc_ref_cold(ptr noundef nonnull %0) #5
  br label %lean_inc.exit13

22:                                               ; preds = %lean_int_dec_le.exit, %lean_int_dec_le.exit.thread38
  %.pre = ptrtoint ptr %2 to i64
  %.pre32 = and i64 %.pre, 1
  %23 = icmp eq i64 %.pre32, 0
  br i1 %23, label %lean_int_dec_le.exit18, label %.thread39, !prof !18

.thread39:                                        ; preds = %lean_int_dec_le.exit.thread, %22
  %.pre-phi44 = phi i64 [ %.pre, %22 ], [ %8, %lean_int_dec_le.exit.thread ]
  %24 = ptrtoint ptr %1 to i64
  %25 = and i64 %24, 1
  %.not7.i.i15 = icmp eq i64 %25, 0
  br i1 %.not7.i.i15, label %lean_int_dec_le.exit18, label %lean_int_dec_le.exit18.thread, !prof !10

lean_int_dec_le.exit18:                           ; preds = %22, %.thread39
  %.pre-phi3343 = phi i1 [ true, %22 ], [ false, %.thread39 ]
  %26 = tail call zeroext i1 @lean_int_big_le(ptr noundef %2, ptr noundef %1) #5
  br i1 %26, label %39, label %31

lean_int_dec_le.exit18.thread:                    ; preds = %.thread39
  %27 = lshr i64 %.pre-phi44, 1
  %28 = trunc i64 %27 to i32
  %29 = lshr i64 %24, 1
  %30 = trunc i64 %29 to i32
  %.not28 = icmp sgt i32 %28, %30
  %spec.select = select i1 %.not28, ptr %1, ptr %2
  br label %lean_inc.exit13

31:                                               ; preds = %lean_int_dec_le.exit18
  %.pre34 = ptrtoint ptr %1 to i64
  %.pre36 = and i64 %.pre34, 1
  %32 = icmp eq i64 %.pre36, 0
  br i1 %32, label %33, label %lean_inc.exit13

33:                                               ; preds = %31
  %.val.i19 = load i32, ptr %1, align 4, !tbaa !4
  %34 = icmp sgt i32 %.val.i19, 0
  br i1 %34, label %35, label %37, !prof !9

35:                                               ; preds = %33
  %36 = add nuw i32 %.val.i19, 1
  store i32 %36, ptr %1, align 4, !tbaa !4
  br label %lean_inc.exit13

37:                                               ; preds = %33
  %.not.i20 = icmp eq i32 %.val.i19, 0
  br i1 %.not.i20, label %lean_inc.exit13, label %38

38:                                               ; preds = %37
  tail call void @lean_inc_ref_cold(ptr noundef nonnull %1) #5
  br label %lean_inc.exit13

39:                                               ; preds = %lean_int_dec_le.exit18
  br i1 %.pre-phi3343, label %40, label %lean_inc.exit13

40:                                               ; preds = %39
  %.val.i22 = load i32, ptr %2, align 4, !tbaa !4
  %41 = icmp sgt i32 %.val.i22, 0
  br i1 %41, label %42, label %44, !prof !9

42:                                               ; preds = %40
  %43 = add nuw i32 %.val.i22, 1
  store i32 %43, ptr %2, align 4, !tbaa !4
  br label %lean_inc.exit13

44:                                               ; preds = %40
  %.not.i23 = icmp eq i32 %.val.i22, 0
  br i1 %.not.i23, label %lean_inc.exit13, label %45

45:                                               ; preds = %44
  tail call void @lean_inc_ref_cold(ptr noundef nonnull %2) #5
  br label %lean_inc.exit13

lean_inc.exit13:                                  ; preds = %lean_int_dec_le.exit18.thread, %lean_int_dec_le.exit.thread38, %lean_int_dec_le.exit.thread, %39, %42, %44, %45, %31, %35, %37, %38, %18, %20, %21
  %.0 = phi ptr [ %0, %21 ], [ %0, %20 ], [ %0, %18 ], [ %1, %38 ], [ %1, %37 ], [ %1, %35 ], [ %1, %31 ], [ %2, %45 ], [ %2, %44 ], [ %2, %42 ], [ %2, %39 ], [ %0, %lean_int_dec_le.exit.thread ], [ %0, %lean_int_dec_le.exit.thread38 ], [ %spec.select, %lean_int_dec_le.exit18.thread ]
  ret ptr %.0
}